
target/aarch64-unknown-linux-gnu/release/armv8-baremetal-demo-rust：     文件格式 elf64-littleaarch64


Disassembly of section .text.boot:

0000000040000000 <_start>:
    40000000:	5800009e 	ldr	x30, 40000010 <_start+0x10>
    40000004:	910003df 	mov	sp, x30
    40000008:	94000004 	bl	40000018 <not_main>
    4000000c:	14000000 	b	4000000c <_start+0xc>
    40000010:	400042b0 	.inst	0x400042b0 ; undefined
    40000014:	00000000 	udf	#0

Disassembly of section .text.not_main:

0000000040000018 <not_main>:
    40000018:	52a12008 	mov	w8, #0x9000000             	// #150994944
    4000001c:	52800829 	mov	w9, #0x41                  	// #65
    40000020:	52800e4a 	mov	w10, #0x72                  	// #114
    40000024:	52800c6b 	mov	w11, #0x63                  	// #99
    40000028:	52800d0c 	mov	w12, #0x68                  	// #104
    4000002c:	39000109 	strb	w9, [x8]
    40000030:	39000109 	strb	w9, [x8]
    40000034:	528006c9 	mov	w9, #0x36                  	// #54
    40000038:	3900010a 	strb	w10, [x8]
    4000003c:	3900010b 	strb	w11, [x8]
    40000040:	5280068b 	mov	w11, #0x34                  	// #52
    40000044:	3900010c 	strb	w12, [x8]
    40000048:	5280040c 	mov	w12, #0x20                  	// #32
    4000004c:	39000109 	strb	w9, [x8]
    40000050:	52800849 	mov	w9, #0x42                  	// #66
    40000054:	3900010b 	strb	w11, [x8]
    40000058:	52800c2b 	mov	w11, #0x61                  	// #97
    4000005c:	3900010c 	strb	w12, [x8]
    40000060:	39000109 	strb	w9, [x8]
    40000064:	52800ca9 	mov	w9, #0x65                  	// #101
    40000068:	3900010b 	strb	w11, [x8]
    4000006c:	3900010a 	strb	w10, [x8]
    40000070:	528009aa 	mov	w10, #0x4d                  	// #77
    40000074:	39000109 	strb	w9, [x8]
    40000078:	3900010c 	strb	w12, [x8]
    4000007c:	52800e8c 	mov	w12, #0x74                  	// #116
    40000080:	3900010a 	strb	w10, [x8]
    40000084:	39000109 	strb	w9, [x8]
    40000088:	52800d89 	mov	w9, #0x6c                  	// #108
    4000008c:	3900010c 	strb	w12, [x8]
    40000090:	3900010b 	strb	w11, [x8]
    40000094:	39000109 	strb	w9, [x8]
    40000098:	d65f03c0 	ret
