
target/aarch64-unknown-linux-gnu/debug/armv8-baremetal-demo-rust：     文件格式 elf64-littleaarch64


Disassembly of section .text.boot:

0000000040000000 <_start>:
    40000000:	5800009e 	ldr	x30, 40000010 <_start+0x10>
    40000004:	910003df 	mov	sp, x30
    40000008:	9400009a 	bl	40000270 <not_main>
    4000000c:	00000000 	udf	#0
    40000010:	40004528 	.inst	0x40004528 ; undefined
    40000014:	00000000 	udf	#0

Disassembly of section .text._ZN4core5slice4iter13Iter$LT$T$GT$3new17h4f998d9a04b0b8e7E:

0000000040000018 <_ZN4core5slice4iter13Iter$LT$T$GT$3new17h4f998d9a04b0b8e7E>:
    40000018:	d10303ff 	sub	sp, sp, #0xc0
    4000001c:	f90003e0 	str	x0, [sp]
    40000020:	f90007e1 	str	x1, [sp, #8]
    40000024:	f90027e0 	str	x0, [sp, #72]
    40000028:	f9002be1 	str	x1, [sp, #80]
    4000002c:	f90033e0 	str	x0, [sp, #96]
    40000030:	f9001be0 	str	x0, [sp, #48]
    40000034:	f9401be8 	ldr	x8, [sp, #48]
    40000038:	f90037e8 	str	x8, [sp, #104]
    4000003c:	f9003be8 	str	x8, [sp, #112]
    40000040:	2a1f03e8 	mov	w8, wzr
    40000044:	37000128 	tbnz	w8, #0, 40000068 <_ZN4core5slice4iter13Iter$LT$T$GT$3new17h4f998d9a04b0b8e7E+0x50>
    40000048:	14000001 	b	4000004c <_ZN4core5slice4iter13Iter$LT$T$GT$3new17h4f998d9a04b0b8e7E+0x34>
    4000004c:	f94003e8 	ldr	x8, [sp]
    40000050:	f94007e9 	ldr	x9, [sp, #8]
    40000054:	f90057e9 	str	x9, [sp, #168]
    40000058:	f9005be9 	str	x9, [sp, #176]
    4000005c:	8b090108 	add	x8, x8, x9
    40000060:	f90013e8 	str	x8, [sp, #32]
    40000064:	14000011 	b	400000a8 <_ZN4core5slice4iter13Iter$LT$T$GT$3new17h4f998d9a04b0b8e7E+0x90>
    40000068:	f94003e8 	ldr	x8, [sp]
    4000006c:	f94007e9 	ldr	x9, [sp, #8]
    40000070:	f9003fe9 	str	x9, [sp, #120]
    40000074:	f90043e8 	str	x8, [sp, #128]
    40000078:	f90047e9 	str	x9, [sp, #136]
    4000007c:	8b090108 	add	x8, x8, x9
    40000080:	f9004be8 	str	x8, [sp, #144]
    40000084:	f9404be8 	ldr	x8, [sp, #144]
    40000088:	f9004fe8 	str	x8, [sp, #152]
    4000008c:	f90053e8 	str	x8, [sp, #160]
    40000090:	f90023e8 	str	x8, [sp, #64]
    40000094:	f94023e8 	ldr	x8, [sp, #64]
    40000098:	f9001fe8 	str	x8, [sp, #56]
    4000009c:	f9401fe8 	ldr	x8, [sp, #56]
    400000a0:	f90013e8 	str	x8, [sp, #32]
    400000a4:	14000001 	b	400000a8 <_ZN4core5slice4iter13Iter$LT$T$GT$3new17h4f998d9a04b0b8e7E+0x90>
    400000a8:	f94003e8 	ldr	x8, [sp]
    400000ac:	f9005fe8 	str	x8, [sp, #184]
    400000b0:	f90017e8 	str	x8, [sp, #40]
    400000b4:	f94013e8 	ldr	x8, [sp, #32]
    400000b8:	f94017e9 	ldr	x9, [sp, #40]
    400000bc:	f9000fe9 	str	x9, [sp, #24]
    400000c0:	f9000be8 	str	x8, [sp, #16]
    400000c4:	f9400be0 	ldr	x0, [sp, #16]
    400000c8:	f9400fe1 	ldr	x1, [sp, #24]
    400000cc:	910303ff 	add	sp, sp, #0xc0
    400000d0:	d65f03c0 	ret

Disassembly of section .text._ZN91_$LT$core..slice..iter..Iter$LT$T$GT$$u20$as$u20$core..iter..traits..iterator..Iterator$GT$4next17h64bad2637c595524E:

00000000400000d4 <_ZN91_$LT$core..slice..iter..Iter$LT$T$GT$$u20$as$u20$core..iter..traits..iterator..Iterator$GT$4next17h64bad2637c595524E>:
    400000d4:	d10483ff 	sub	sp, sp, #0x120
    400000d8:	f9008bfd 	str	x29, [sp, #272]
    400000dc:	f90007e0 	str	x0, [sp, #8]
    400000e0:	aa0003e8 	mov	x8, x0
    400000e4:	f90027e8 	str	x8, [sp, #72]
    400000e8:	f9400408 	ldr	x8, [x0, #8]
    400000ec:	f9002fe8 	str	x8, [sp, #88]
    400000f0:	f90033e8 	str	x8, [sp, #96]
    400000f4:	f90013e8 	str	x8, [sp, #32]
    400000f8:	f94013e8 	ldr	x8, [sp, #32]
    400000fc:	f90037e8 	str	x8, [sp, #104]
    40000100:	f9003be8 	str	x8, [sp, #112]
    40000104:	52800028 	mov	w8, #0x1                   	// #1
    40000108:	37000148 	tbnz	w8, #0, 40000130 <_ZN91_$LT$core..slice..iter..Iter$LT$T$GT$$u20$as$u20$core..iter..traits..iterator..Iterator$GT$4next17h64bad2637c595524E+0x5c>
    4000010c:	14000001 	b	40000110 <_ZN91_$LT$core..slice..iter..Iter$LT$T$GT$$u20$as$u20$core..iter..traits..iterator..Iterator$GT$4next17h64bad2637c595524E+0x3c>
    40000110:	f94007e9 	ldr	x9, [sp, #8]
    40000114:	f9400528 	ldr	x8, [x9, #8]
    40000118:	f9004be8 	str	x8, [sp, #144]
    4000011c:	f9400129 	ldr	x9, [x9]
    40000120:	eb090108 	subs	x8, x8, x9
    40000124:	1a9f17e8 	cset	w8, eq  // eq = none
    40000128:	370001e8 	tbnz	w8, #0, 40000164 <_ZN91_$LT$core..slice..iter..Iter$LT$T$GT$$u20$as$u20$core..iter..traits..iterator..Iterator$GT$4next17h64bad2637c595524E+0x90>
    4000012c:	14000009 	b	40000150 <_ZN91_$LT$core..slice..iter..Iter$LT$T$GT$$u20$as$u20$core..iter..traits..iterator..Iterator$GT$4next17h64bad2637c595524E+0x7c>
    40000130:	f94007e8 	ldr	x8, [sp, #8]
    40000134:	f9400108 	ldr	x8, [x8]
    40000138:	f9003fe8 	str	x8, [sp, #120]
    4000013c:	f90017e8 	str	x8, [sp, #40]
    40000140:	f94017e8 	ldr	x8, [sp, #40]
    40000144:	f90043e8 	str	x8, [sp, #128]
    40000148:	f90047e8 	str	x8, [sp, #136]
    4000014c:	17fffff1 	b	40000110 <_ZN91_$LT$core..slice..iter..Iter$LT$T$GT$$u20$as$u20$core..iter..traits..iterator..Iterator$GT$4next17h64bad2637c595524E+0x3c>
    40000150:	f94007e8 	ldr	x8, [sp, #8]
    40000154:	f9004fe8 	str	x8, [sp, #152]
    40000158:	2a1f03e8 	mov	w8, wzr
    4000015c:	37000108 	tbnz	w8, #0, 4000017c <_ZN91_$LT$core..slice..iter..Iter$LT$T$GT$$u20$as$u20$core..iter..traits..iterator..Iterator$GT$4next17h64bad2637c595524E+0xa8>
    40000160:	1400001b 	b	400001cc <_ZN91_$LT$core..slice..iter..Iter$LT$T$GT$$u20$as$u20$core..iter..traits..iterator..Iterator$GT$4next17h64bad2637c595524E+0xf8>
    40000164:	f9000bff 	str	xzr, [sp, #16]
    40000168:	14000001 	b	4000016c <_ZN91_$LT$core..slice..iter..Iter$LT$T$GT$$u20$as$u20$core..iter..traits..iterator..Iterator$GT$4next17h64bad2637c595524E+0x98>
    4000016c:	f9400be0 	ldr	x0, [sp, #16]
    40000170:	f9408bfd 	ldr	x29, [sp, #272]
    40000174:	910483ff 	add	sp, sp, #0x120
    40000178:	d65f03c0 	ret
    4000017c:	f94007e8 	ldr	x8, [sp, #8]
    40000180:	f9400109 	ldr	x9, [x8]
    40000184:	f9006fe9 	str	x9, [sp, #216]
    40000188:	f90073e9 	str	x9, [sp, #224]
    4000018c:	9280000a 	mov	x10, #0xffffffffffffffff    	// #-1
    40000190:	f90077ea 	str	x10, [sp, #232]
    40000194:	f1000529 	subs	x9, x9, #0x1
    40000198:	f9007be9 	str	x9, [sp, #240]
    4000019c:	f9407be9 	ldr	x9, [sp, #240]
    400001a0:	f9007fe9 	str	x9, [sp, #248]
    400001a4:	f90083e9 	str	x9, [sp, #256]
    400001a8:	f90023e9 	str	x9, [sp, #64]
    400001ac:	f94023e9 	ldr	x9, [sp, #64]
    400001b0:	f9001fe9 	str	x9, [sp, #56]
    400001b4:	f9401fe9 	ldr	x9, [sp, #56]
    400001b8:	f9000109 	str	x9, [x8]
    400001bc:	f9400508 	ldr	x8, [x8, #8]
    400001c0:	f90087e8 	str	x8, [sp, #264]
    400001c4:	f9000fe8 	str	x8, [sp, #24]
    400001c8:	14000013 	b	40000214 <_ZN91_$LT$core..slice..iter..Iter$LT$T$GT$$u20$as$u20$core..iter..traits..iterator..Iterator$GT$4next17h64bad2637c595524E+0x140>
    400001cc:	f94007ea 	ldr	x10, [sp, #8]
    400001d0:	f9400548 	ldr	x8, [x10, #8]
    400001d4:	f90053e8 	str	x8, [sp, #160]
    400001d8:	f90057e8 	str	x8, [sp, #168]
    400001dc:	f9400549 	ldr	x9, [x10, #8]
    400001e0:	f9005be9 	str	x9, [sp, #176]
    400001e4:	f9005fe9 	str	x9, [sp, #184]
    400001e8:	5280002b 	mov	w11, #0x1                   	// #1
    400001ec:	f90063eb 	str	x11, [sp, #192]
    400001f0:	91000529 	add	x9, x9, #0x1
    400001f4:	f90067e9 	str	x9, [sp, #200]
    400001f8:	f94067e9 	ldr	x9, [sp, #200]
    400001fc:	f9006be9 	str	x9, [sp, #208]
    40000200:	f9001be9 	str	x9, [sp, #48]
    40000204:	f9401be9 	ldr	x9, [sp, #48]
    40000208:	f9000549 	str	x9, [x10, #8]
    4000020c:	f9000fe8 	str	x8, [sp, #24]
    40000210:	14000001 	b	40000214 <_ZN91_$LT$core..slice..iter..Iter$LT$T$GT$$u20$as$u20$core..iter..traits..iterator..Iterator$GT$4next17h64bad2637c595524E+0x140>
    40000214:	f9400fe8 	ldr	x8, [sp, #24]
    40000218:	f9000be8 	str	x8, [sp, #16]
    4000021c:	17ffffd4 	b	4000016c <_ZN91_$LT$core..slice..iter..Iter$LT$T$GT$$u20$as$u20$core..iter..traits..iterator..Iterator$GT$4next17h64bad2637c595524E+0x98>

Disassembly of section .text._ZN4core3ptr14write_volatile17h13aa5119cc79ba29E:

0000000040000220 <_ZN4core3ptr14write_volatile17h13aa5119cc79ba29E>:
    40000220:	d10043ff 	sub	sp, sp, #0x10
    40000224:	aa0003e8 	mov	x8, x0
    40000228:	f90003e8 	str	x8, [sp]
    4000022c:	39003fe1 	strb	w1, [sp, #15]
    40000230:	39000001 	strb	w14000023c, [x0]
    40000234:	910043ff 	add	sp, sp, #0x10
    40000238:	d65f03c0 	ret

Disassembly of section .text._ZN4core5array98_$LT$impl$u20$core..iter..traits..collect..IntoIterator$u20$for$u20$$RF$$u5b$T$u3b$$u20$N$u5d$$GT$9into_iter17hea5b6789b0385f99E:

000000004000023c <_ZN4core5array98_$LT$impl$u20$core..iter..traits..collect..IntoIterator$u20$for$u20$$RF$$u5b$T$u3b$$u20$N$u5d$$GT$9into_iter17hea5b6789b0385f99E>:
    4000023c:	d100c3ff 	sub	sp, sp, #0x30
    40000240:	f90013fe 	str	x30, [sp, #32]
    40000244:	aa0003e8 	mov	x8, x0
    40000248:	f90007e8 	str	x8, [sp, #8]
    4000024c:	aa0003e8 	mov	x8, x0
    40000250:	f9000be8 	str	x8, [sp, #16]
    40000254:	52800368 	mov	w8, #0x1b                  	// #27
    40000258:	2a0803e1 	mov	w1, w8
    4000025c:	f9000fe1 	str	x1, [sp, #24]
    40000260:	97ffff6e 	bl	40000018 <_ZN4core5slice4iter13Iter$LT$T$GT$3new17h4f998d9a04b0b8e7E>
    40000264:	f94013fe 	ldr	x30, [sp, #32]
    40000268:	9100c3ff 	add	sp, sp, #0x30
    4000026c:	d65f03c0 	ret

Disassembly of section .text.not_main:

0000000040000270 <not_main>:
    40000270:	d10103ff 	sub	sp, sp, #0x40 // #0x40 == 0x0100_0000 == 8Byte, 栈指针sp寄存器上移8字节
    40000274:	f9001bfe 	str	x30, [sp, #48] // 将x30中的字数据写入sp+48的位置，x30存储的是栈顶
    40000278:	90000000 	adrp	x0, 40000000 <_start>
    4000027c:	9113d000 	add	x0, x0, #0x4f4
    40000280:	aa0003e8 	mov	x8, x0
    40000284:	f90013e8 	str	x8, [sp, #32]
    40000288:	97ffffed 	bl	4000023c <_ZN4core5array98_$LT$impl$u20$core..iter..traits..collect..IntoIterator$u20$for$u20$$RF$$u5b$T$u3b$$u20$N$u5d$$GT$9into_iter17hea5b6789b0385f99E>
    4000028c:	f90007e0 	str	x0, [sp, #8]
    40000290:	f9000be1 	str	x1, [sp, #16]
    40000294:	14000001 	b	40000298 <not_main+0x28>
    40000298:	910023e0 	add	x0, sp, #0x8
    4000029c:	97ffff8e 	bl	400000d4 <_ZN91_$LT$core..slice..iter..Iter$LT$T$GT$$u20$as$u20$core..iter..traits..iterator..Iterator$GT$4next17h64bad2637c595524E>
    400002a0:	f9000fe0 	str	x0, [sp, #24]
    400002a4:	f9400fe8 	ldr	x8, [sp, #24]
    400002a8:	f1000108 	subs	x8, x8, #0x0
    400002ac:	1a9f17e8 	cset	w8, eq  // eq = none
    400002b0:	12000108 	and	w8, w8, #0x1
    400002b4:	72000108 	ands	w8, w8, #0x1
    400002b8:	9a9f17e8 	cset	x8, eq  // eq = none
    400002bc:	f1000108 	subs	x8, x8, #0x0
    400002c0:	1a9f07e8 	cset	w8, ne  // ne = any
    400002c4:	370000a8 	tbnz	w8, #0, 400002d8 <not_main+0x68>
    400002c8:	14000001 	b	400002cc <not_main+0x5c>
    400002cc:	f9401bfe 	ldr	x30, [sp, #48]
    400002d0:	910103ff 	add	sp, sp, #0x40
    400002d4:	d65f03c0 	ret
    400002d8:	f9400fe8 	ldr	x8, [sp, #24]
    400002dc:	aa0803e9 	mov	x9, x8
    400002e0:	f90017e9 	str	x9, [sp, #40]
    400002e4:	39400101 	ldrb	w1, [x8]
    400002e8:	52a12008 	mov	w8, #0x9000000             	// #150994944
    400002ec:	2a0803e0 	mov	w0, w8
    400002f0:	97ffffcc 	bl	40000220 <_ZN4core3ptr14write_volatile17h13aa5119cc79ba29E>
    400002f4:	17ffffe9 	b	40000298 <not_main+0x28>
